target datalayout = "e-m:e-p270:32:32-p271:32:32-p272:64:64-i64:64-i128:128-f80:128-n8:16:32:64-S128"
target triple = "x86_64-pc-linux-gnu"

%"class.std::basic_string_view" = type { i64, ptr }
%"struct.pkpy::TokenDeserializer" = type { ptr, ptr }

; Function Attrs: mustprogress nounwind uwtable
define linkonce_odr void @_ZNSt17basic_string_viewIcSt11char_traitsIcEEC2EPKcm(ptr noundef nonnull align 8 dereferenceable(16) %0, ptr noundef %1, i64 noundef %2) unnamed_addr #5 comdat align 2 {
  %4 = alloca ptr, align 8
  %5 = alloca ptr, align 8
  %6 = alloca i64, align 8
  store ptr %0, ptr %4, align 8
  store ptr %1, ptr %5, align 8
  store i64 %2, ptr %6, align 8
  %7 = load ptr, ptr %4, align 8
  %8 = getelementptr inbounds %"class.std::basic_string_view", ptr %7, i32 0, i32 0
  %9 = load i64, ptr %6, align 8
  store i64 %9, ptr %8, align 8
  %10 = getelementptr inbounds %"class.std::basic_string_view", ptr %7, i32 0, i32 1
  %11 = load ptr, ptr %5, align 8
  store ptr %11, ptr %10, align 8
  ret void
}

; Function Attrs: mustprogress nounwind uwtable
define { i64, ptr } @_ZN4pkpy17TokenDeserializer11read_stringEc(ptr noundef nonnull align 8 dereferenceable(16) %0, i8 noundef signext %1) #5 align 2 {
  %3 = alloca %"class.std::basic_string_view", align 8
  %4 = alloca ptr, align 8
  %5 = alloca i8, align 1
  %6 = alloca ptr, align 8
  store ptr %0, ptr %4, align 8
  store i8 %1, ptr %5, align 1
  %7 = load ptr, ptr %4, align 8
  %8 = getelementptr inbounds %"struct.pkpy::TokenDeserializer", ptr %7, i32 0, i32 0
  %9 = load ptr, ptr %8, align 8
  store ptr %9, ptr %6, align 8
  br label %10

10:                                               ; preds = %18, %2
  %11 = getelementptr inbounds %"struct.pkpy::TokenDeserializer", ptr %7, i32 0, i32 0
  %12 = load ptr, ptr %11, align 8
  %13 = load i8, ptr %12, align 1
  %14 = sext i8 %13 to i32
  %15 = load i8, ptr %5, align 1
  %16 = sext i8 %15 to i32
  %17 = icmp ne i32 %14, %16
  br i1 %17, label %18, label %22

18:                                               ; preds = %10
  %19 = getelementptr inbounds %"struct.pkpy::TokenDeserializer", ptr %7, i32 0, i32 0
  %20 = load ptr, ptr %19, align 8
  %21 = getelementptr inbounds i8, ptr %20, i32 1
  store ptr %21, ptr %19, align 8
  br label %10, !llvm.loop !39

22:                                               ; preds = %10
  %23 = load ptr, ptr %6, align 8
  %24 = getelementptr inbounds %"struct.pkpy::TokenDeserializer", ptr %7, i32 0, i32 0
  %25 = load ptr, ptr %24, align 8
  %26 = load ptr, ptr %6, align 8
  %27 = ptrtoint ptr %25 to i64
  %28 = ptrtoint ptr %26 to i64
  %29 = sub i64 %27, %28
  call void @_ZNSt17basic_string_viewIcSt11char_traitsIcEEC2EPKcm(ptr noundef nonnull align 8 dereferenceable(16) %3, ptr noundef %23, i64 noundef %29) #3
  %30 = getelementptr inbounds %"struct.pkpy::TokenDeserializer", ptr %7, i32 0, i32 0
  %31 = load ptr, ptr %30, align 8
  %32 = getelementptr inbounds i8, ptr %31, i32 1
  store ptr %32, ptr %30, align 8
  %33 = load { i64, ptr }, ptr %3, align 8
  ret { i64, ptr } %33
}