; Function Attrs: mustprogress nofree norecurse nosync nounwind memory(read, argmem: readwrite, inaccessiblemem: none) uwtable
define { i64, ptr } @_ZN4pkpy17TokenDeserializer11read_stringEc(ptr noundef nonnull align 8 captures(none) dereferenceable(16) %0, i8 noundef signext %1) local_unnamed_addr #9 align 2 {
  %3 = load ptr, ptr %0, align 8
  %4 = load i8, ptr %3, align 1
  %.not3 = icmp eq i8 %4, %1
  br i1 %.not3, label %._crit_edge, label %.lr.ph

.lr.ph:                                           ; preds = %2, %.lr.ph
  %5 = phi ptr [ %6, %.lr.ph ], [ %3, %2 ]
  %6 = getelementptr inbounds nuw i8, ptr %5, i64 1
  store ptr %6, ptr %0, align 8
  %7 = load i8, ptr %6, align 1
  %.not = icmp eq i8 %7, %1
  br i1 %.not, label %._crit_edge, label %.lr.ph, !llvm.loop !333

._crit_edge:                                      ; preds = %.lr.ph, %2
  %.lcssa = phi ptr [ %3, %2 ], [ %6, %.lr.ph ]
  %8 = ptrtoint ptr %.lcssa to i64
  %9 = ptrtoint ptr %3 to i64
  %10 = sub i64 %8, %9
  %11 = getelementptr inbounds nuw i8, ptr %.lcssa, i64 1
  store ptr %11, ptr %0, align 8
  %.fca.0.insert = insertvalue { i64, ptr } poison, i64 %10, 0
  %.fca.1.insert = insertvalue { i64, ptr } %.fca.0.insert, ptr %3, 1
  ret { i64, ptr } %.fca.1.insert
}